target datalayout = "e-m:e-p270:32:32-p271:32:32-p272:64:64-i64:64-i128:128-f80:128-n8:16:32:64-S128"
target triple = "x86_64-pc-linux-gnu"

%struct.H5D_layout_ops_t = type { ptr, ptr, ptr, ptr, ptr, ptr, ptr, ptr, ptr, ptr, ptr, ptr, ptr }
%struct.H5D_dset_io_info_t = type { ptr, ptr, %struct.H5D_layout_ops_t, %union.H5_flexible_const_ptr_t, %struct.H5D_io_ops_t, ptr, i64, ptr, ptr, %union.anon.8, ptr, %struct.H5D_type_info_t, i8 }
%union.H5_flexible_const_ptr_t = type { ptr }
%struct.H5D_io_ops_t = type { ptr, ptr, ptr, ptr }
%union.anon.8 = type { ptr }
%struct.H5D_type_info_t = type { ptr, ptr, ptr, ptr, ptr, i64, i64, i8, i8, ptr, i32, i64 }
%struct.H5D_chunk_map_t = type { i32, ptr, %struct.H5S_sel_iter_t, i32, i32, i32, ptr, ptr, ptr, i8, i64, ptr, [33 x i64] }
%struct.H5S_sel_iter_t = type { ptr, i32, [32 x i64], [32 x i64], i64, i64, i32, %union.anon.9 }
%union.anon.9 = type { %struct.H5S_hyper_iter_t }
%struct.H5S_hyper_iter_t = type { [32 x i64], [32 x i64], i32, i8, [32 x %struct.H5S_hyper_dim_t], [32 x i64], [32 x i64], [32 x i8], [32 x i64], ptr, [32 x ptr] }
%struct.H5S_hyper_dim_t = type { i64, i64, i64, i64 }
%struct.H5D_io_info_t = type { ptr, %struct.H5D_md_io_ops_t, i32, i64, i64, ptr, i64, i64, i64, ptr, ptr, ptr, ptr, ptr, ptr, ptr, i64, %union.H5_flexible_const_ptr_t, i32, ptr, i8, i64, ptr, i8, i64, i64, i8, i8, i32 }
%struct.H5D_md_io_ops_t = type { ptr, ptr, ptr, ptr }
%struct.H5D_piece_info_t = type { i64, i64, i64, [33 x i64], ptr, i32, ptr, i32, i8, i64, i8, ptr }
%struct.H5D_chunk_ud_t = type { %struct.H5D_chunk_common_ud_t, i32, %struct.H5F_block_t, i32, i8, i64 }
%struct.H5D_chunk_common_ud_t = type { ptr, ptr, ptr }
%struct.H5F_block_t = type { i64, i64 }

@H5D_init_g = external global i8, align 1
@H5_libterm_g = external global i8, align 1
@.str.1 = private unnamed_addr constant [102 x i8] c"generated/home/dtcxzyw/WorkSpace/Projects/compilers/llvm-opt-benchmark/bench/hdf5/hdf5/src/H5Dchunk.c\00", align 1
@H5E_DATASET_g = external global i64, align 8
@H5E_CANTGET_g = external global i64, align 8
@.str.3 = private unnamed_addr constant [31 x i8] c"error looking up chunk address\00", align 1
@__func__.H5D__chunk_mdio_init = private unnamed_addr constant [21 x i8] c"H5D__chunk_mdio_init\00", align 1
@.str.146 = private unnamed_addr constant [34 x i8] c"couldn't get piece info from list\00", align 1

; Function Attrs: nounwind uwtable
define internal i32 @H5D__chunk_mdio_init(ptr noundef %0, ptr noundef %1) #0 {
  %3 = alloca ptr, align 8
  %4 = alloca ptr, align 8
  %5 = alloca ptr, align 8
  %6 = alloca ptr, align 8
  %7 = alloca %struct.H5D_chunk_ud_t, align 8
  %8 = alloca i32, align 4
  %9 = alloca i8, align 1
  store ptr %0, ptr %3, align 8, !tbaa !85
  store ptr %1, ptr %4, align 8, !tbaa !87
  call void @llvm.lifetime.start.p0(i64 8, ptr %5) #10
  call void @llvm.lifetime.start.p0(i64 8, ptr %6) #10
  call void @llvm.lifetime.start.p0(i64 64, ptr %7) #10
  call void @llvm.lifetime.start.p0(i64 4, ptr %8) #10
  store i32 0, ptr %8, align 4, !tbaa !10
  call void @llvm.lifetime.start.p0(i64 1, ptr %9) #10
  store i8 0, ptr %9, align 1, !tbaa !12
  %10 = load i8, ptr @H5D_init_g, align 1, !tbaa !12, !range !14, !noundef !15
  %11 = trunc i8 %10 to i1
  br i1 %11, label %16, label %12

12:                                               ; preds = %2
  %13 = load i8, ptr @H5_libterm_g, align 1, !tbaa !12, !range !14, !noundef !15
  %14 = trunc i8 %13 to i1
  %15 = xor i1 %14, true
  br label %16

16:                                               ; preds = %12, %2
  %17 = phi i1 [ true, %2 ], [ %15, %12 ]
  %18 = xor i1 %17, true
  %19 = xor i1 %18, true
  %20 = zext i1 %19 to i32
  %21 = sext i32 %20 to i64
  %22 = call i64 @llvm.expect.i64(i64 %21, i64 1)
  %23 = icmp ne i64 %22, 0
  br i1 %23, label %24, label %155

24:                                               ; preds = %16
  %25 = load ptr, ptr %4, align 8, !tbaa !87
  %26 = getelementptr inbounds nuw %struct.H5D_dset_io_info_t, ptr %25, i32 0, i32 9
  %27 = load ptr, ptr %26, align 8, !tbaa !23
  %28 = getelementptr inbounds nuw %struct.H5D_chunk_map_t, ptr %27, i32 0, i32 9
  %29 = load i8, ptr %28, align 8, !tbaa !126, !range !14, !noundef !15
  %30 = trunc i8 %29 to i1
  br i1 %30, label %31, label %32

31:                                               ; preds = %24
  br label %39

32:                                               ; preds = %24
  %33 = load ptr, ptr %4, align 8, !tbaa !87
  %34 = getelementptr inbounds nuw %struct.H5D_dset_io_info_t, ptr %33, i32 0, i32 9
  %35 = load ptr, ptr %34, align 8, !tbaa !23
  %36 = getelementptr inbounds nuw %struct.H5D_chunk_map_t, ptr %35, i32 0, i32 6
  %37 = load ptr, ptr %36, align 8, !tbaa !107
  %38 = call ptr @H5SL_first(ptr noundef %37)
  br label %39

39:                                               ; preds = %32, %31
  %40 = phi ptr [ inttoptr (i64 1 to ptr), %31 ], [ %38, %32 ]
  store ptr %40, ptr %5, align 8, !tbaa !127
  br label %41

41:                                               ; preds = %151, %39
  %42 = load ptr, ptr %5, align 8, !tbaa !127
  %43 = icmp ne ptr %42, null
  br i1 %43, label %44, label %153

44:                                               ; preds = %41
  %45 = load ptr, ptr %4, align 8, !tbaa !87
  %46 = getelementptr inbounds nuw %struct.H5D_dset_io_info_t, ptr %45, i32 0, i32 9
  %47 = load ptr, ptr %46, align 8, !tbaa !23
  %48 = getelementptr inbounds nuw %struct.H5D_chunk_map_t, ptr %47, i32 0, i32 9
  %49 = load i8, ptr %48, align 8, !tbaa !126, !range !14, !noundef !15
  %50 = trunc i8 %49 to i1
  br i1 %50, label %51, label %57

51:                                               ; preds = %44
  %52 = load ptr, ptr %4, align 8, !tbaa !87
  %53 = getelementptr inbounds nuw %struct.H5D_dset_io_info_t, ptr %52, i32 0, i32 9
  %54 = load ptr, ptr %53, align 8, !tbaa !23
  %55 = getelementptr inbounds nuw %struct.H5D_chunk_map_t, ptr %54, i32 0, i32 8
  %56 = load ptr, ptr %55, align 8, !tbaa !109
  br label %60

57:                                               ; preds = %44
  %58 = load ptr, ptr %5, align 8, !tbaa !127
  %59 = call ptr @H5SL_item(ptr noundef %58)
  br label %60

60:                                               ; preds = %57, %51
  %61 = phi ptr [ %56, %51 ], [ %59, %57 ]
  store ptr %61, ptr %6, align 8, !tbaa !129
  %62 = icmp eq ptr null, %61
  br i1 %62, label %63, label %82

63:                                               ; preds = %60
  br label %64

64:                                               ; preds = %63
  br label %65

65:                                               ; preds = %64
  br label %66

66:                                               ; preds = %65
  %67 = load i64, ptr @H5E_DATASET_g, align 8, !tbaa !24
  %68 = load i64, ptr @H5E_CANTGET_g, align 8, !tbaa !24
  %69 = call i32 (ptr, ptr, i32, i64, i64, ptr, ...) @H5E_printf_stack(ptr noundef @.str.1, ptr noundef @__func__.H5D__chunk_mdio_init, i32 noundef 2459, i64 noundef %67, i64 noundef %68, ptr noundef @.str.146)
  br label %70

70:                                               ; preds = %66
  br label %71

71:                                               ; preds = %70
  store i8 1, ptr %9, align 1, !tbaa !12
  %72 = load i8, ptr %9, align 1, !tbaa !12, !range !14, !noundef !15
  %73 = trunc i8 %72 to i1
  %74 = zext i1 %73 to i8
  store i8 %74, ptr %9, align 1, !tbaa !12
  br label %75

75:                                               ; preds = %71
  br label %76

76:                                               ; preds = %75
  br label %77

77:                                               ; preds = %76
  store i32 -1, ptr %8, align 4, !tbaa !10
  br label %154

78:                                               ; No predecessors!
  br label %79

79:                                               ; preds = %78
  br label %80

80:                                               ; preds = %79
  br label %81

81:                                               ; preds = %80
  br label %82

82:                                               ; preds = %81, %60
  %83 = load ptr, ptr %4, align 8, !tbaa !87
  %84 = getelementptr inbounds nuw %struct.H5D_dset_io_info_t, ptr %83, i32 0, i32 0
  %85 = load ptr, ptr %84, align 8, !tbaa !89
  %86 = load ptr, ptr %6, align 8, !tbaa !129
  %87 = getelementptr inbounds nuw %struct.H5D_piece_info_t, ptr %86, i32 0, i32 3
  %88 = getelementptr inbounds [33 x i64], ptr %87, i64 0, i64 0
  %89 = call i32 @H5D__chunk_lookup(ptr noundef %85, ptr noundef %88, ptr noundef %7)
  %90 = icmp slt i32 %89, 0
  br i1 %90, label %91, label %110

91:                                               ; preds = %82
  br label %92

92:                                               ; preds = %91
  br label %93

93:                                               ; preds = %92
  br label %94

94:                                               ; preds = %93
  %95 = load i64, ptr @H5E_DATASET_g, align 8, !tbaa !24
  %96 = load i64, ptr @H5E_CANTGET_g, align 8, !tbaa !24
  %97 = call i32 (ptr, ptr, i32, i64, i64, ptr, ...) @H5E_printf_stack(ptr noundef @.str.1, ptr noundef @__func__.H5D__chunk_mdio_init, i32 noundef 2463, i64 noundef %95, i64 noundef %96, ptr noundef @.str.3)
  br label %98

98:                                               ; preds = %94
  br label %99

99:                                               ; preds = %98
  store i8 1, ptr %9, align 1, !tbaa !12
  %100 = load i8, ptr %9, align 1, !tbaa !12, !range !14, !noundef !15
  %101 = trunc i8 %100 to i1
  %102 = zext i1 %101 to i8
  store i8 %102, ptr %9, align 1, !tbaa !12
  br label %103

103:                                              ; preds = %99
  br label %104

104:                                              ; preds = %103
  br label %105

105:                                              ; preds = %104
  store i32 -1, ptr %8, align 4, !tbaa !10
  br label %154

106:                                              ; No predecessors!
  br label %107

107:                                              ; preds = %106
  br label %108

108:                                              ; preds = %107
  br label %109

109:                                              ; preds = %108
  br label %110

110:                                              ; preds = %109, %82
  %111 = getelementptr inbounds nuw %struct.H5D_chunk_ud_t, ptr %7, i32 0, i32 2
  %112 = getelementptr inbounds nuw %struct.H5F_block_t, ptr %111, i32 0, i32 0
  %113 = load i64, ptr %112, align 8, !tbaa !141
  %114 = load ptr, ptr %6, align 8, !tbaa !129
  %115 = getelementptr inbounds nuw %struct.H5D_piece_info_t, ptr %114, i32 0, i32 0
  store i64 %113, ptr %115, align 8, !tbaa !145
  %116 = load ptr, ptr %6, align 8, !tbaa !129
  %117 = getelementptr inbounds nuw %struct.H5D_piece_info_t, ptr %116, i32 0, i32 0
  %118 = load i64, ptr %117, align 8, !tbaa !145
  %119 = icmp ne i64 %118, -1
  br i1 %119, label %120, label %140

120:                                              ; preds = %110
  %121 = load ptr, ptr %6, align 8, !tbaa !129
  %122 = load ptr, ptr %3, align 8, !tbaa !85
  %123 = getelementptr inbounds nuw %struct.H5D_io_info_t, ptr %122, i32 0, i32 9
  %124 = load ptr, ptr %123, align 8, !tbaa !146
  %125 = load ptr, ptr %3, align 8, !tbaa !85
  %126 = getelementptr inbounds nuw %struct.H5D_io_info_t, ptr %125, i32 0, i32 7
  %127 = load i64, ptr %126, align 8, !tbaa !147
  %128 = add i64 %127, 1
  store i64 %128, ptr %126, align 8, !tbaa !147
  %129 = getelementptr inbounds nuw ptr, ptr %124, i64 %127
  store ptr %121, ptr %129, align 8, !tbaa !129
  %130 = load ptr, ptr %6, align 8, !tbaa !129
  %131 = getelementptr inbounds nuw %struct.H5D_piece_info_t, ptr %130, i32 0, i32 10
  %132 = load i8, ptr %131, align 8, !tbaa !148, !range !14, !noundef !15
  %133 = trunc i8 %132 to i1
  br i1 %133, label %134, label %139

134:                                              ; preds = %120
  %135 = load ptr, ptr %3, align 8, !tbaa !85
  %136 = getelementptr inbounds nuw %struct.H5D_io_info_t, ptr %135, i32 0, i32 8
  %137 = load i64, ptr %136, align 8, !tbaa !149
  %138 = add i64 %137, 1
  store i64 %138, ptr %136, align 8, !tbaa !149
  br label %139

139:                                              ; preds = %134, %120
  br label %140

140:                                              ; preds = %139, %110
  %141 = load ptr, ptr %4, align 8, !tbaa !87
  %142 = getelementptr inbounds nuw %struct.H5D_dset_io_info_t, ptr %141, i32 0, i32 9
  %143 = load ptr, ptr %142, align 8, !tbaa !23
  %144 = getelementptr inbounds nuw %struct.H5D_chunk_map_t, ptr %143, i32 0, i32 9
  %145 = load i8, ptr %144, align 8, !tbaa !126, !range !14, !noundef !15
  %146 = trunc i8 %145 to i1
  br i1 %146, label %147, label %148

147:                                              ; preds = %140
  br label %151

148:                                              ; preds = %140
  %149 = load ptr, ptr %5, align 8, !tbaa !127
  %150 = call ptr @H5SL_next(ptr noundef %149)
  br label %151

151:                                              ; preds = %148, %147
  %152 = phi ptr [ null, %147 ], [ %150, %148 ]
  store ptr %152, ptr %5, align 8, !tbaa !127
  br label %41, !llvm.loop !150

153:                                              ; preds = %41
  br label %154

154:                                              ; preds = %153, %105, %77
  br label %155

155:                                              ; preds = %154, %16
  %156 = load i32, ptr %8, align 4, !tbaa !10
  call void @llvm.lifetime.end.p0(i64 1, ptr %9) #10
  call void @llvm.lifetime.end.p0(i64 4, ptr %8) #10
  call void @llvm.lifetime.end.p0(i64 64, ptr %7) #10
  call void @llvm.lifetime.end.p0(i64 8, ptr %6) #10
  call void @llvm.lifetime.end.p0(i64 8, ptr %5) #10
  ret i32 %156
}