; Function Attrs: nounwind uwtable
define internal range(i32 -1, 1) i32 @H5D__chunk_mdio_init(ptr noundef captures(none) %0, ptr noundef readonly captures(none) %1) #0 {
  %3 = alloca %struct.H5D_chunk_ud_t, align 8
  call void @llvm.lifetime.start.p0(i64 64, ptr nonnull %3) #15
  %4 = load i8, ptr @H5D_init_g, align 1, !tbaa !3, !range !7, !noundef !8
  %5 = trunc nuw i8 %4 to i1
  %6 = load i8, ptr @H5_libterm_g, align 1, !range !7
  %7 = trunc nuw i8 %6 to i1
  %8 = xor i1 %7, true
  %9 = select i1 %5, i1 true, i1 %8
  br i1 %9, label %10, label %.loopexit, !prof !9

10:                                               ; preds = %2
  %11 = getelementptr inbounds nuw i8, ptr %1, i64 192
  %12 = load ptr, ptr %11, align 8, !tbaa !20
  %13 = getelementptr inbounds nuw i8, ptr %12, i64 3216
  %14 = load i8, ptr %13, align 8, !tbaa !105, !range !7, !noundef !8
  %15 = trunc nuw i8 %14 to i1
  br i1 %15, label %.lr.ph, label %16

16:                                               ; preds = %10
  %17 = getelementptr inbounds nuw i8, ptr %12, i64 3192
  %18 = load ptr, ptr %17, align 8, !tbaa !132
  %19 = tail call ptr @H5SL_first(ptr noundef %18) #15
  %.not22 = icmp eq ptr %19, null
  br i1 %.not22, label %.loopexit, label %.lr.ph

.lr.ph:                                           ; preds = %10, %16
  %20 = phi ptr [ %19, %16 ], [ inttoptr (i64 1 to ptr), %10 ]
  %21 = getelementptr inbounds nuw i8, ptr %3, i64 32
  %22 = getelementptr inbounds nuw i8, ptr %0, i64 96
  %23 = getelementptr inbounds nuw i8, ptr %0, i64 80
  %24 = getelementptr inbounds nuw i8, ptr %0, i64 88
  br label %25

25:                                               ; preds = %.lr.ph, %69
  %.01923 = phi ptr [ %20, %.lr.ph ], [ %70, %69 ]
  %26 = load ptr, ptr %11, align 8, !tbaa !20
  %27 = getelementptr inbounds nuw i8, ptr %26, i64 3216
  %28 = load i8, ptr %27, align 8, !tbaa !105, !range !7, !noundef !8
  %29 = trunc nuw i8 %28 to i1
  br i1 %29, label %30, label %33

30:                                               ; preds = %25
  %31 = getelementptr inbounds nuw i8, ptr %26, i64 3208
  %32 = load ptr, ptr %31, align 8, !tbaa !109
  br label %35

33:                                               ; preds = %25
  %34 = call ptr @H5SL_item(ptr noundef nonnull %.01923) #15
  br label %35

35:                                               ; preds = %33, %30
  %36 = phi ptr [ %32, %30 ], [ %34, %33 ]
  %37 = icmp eq ptr %36, null
  br i1 %37, label %38, label %42

38:                                               ; preds = %35
  %39 = load i64, ptr @H5E_DATASET_g, align 8, !tbaa !21
  %40 = load i64, ptr @H5E_CANTGET_g, align 8, !tbaa !21
  %41 = call i32 (ptr, ptr, i32, i64, i64, ptr, ...) @H5E_printf_stack(ptr noundef nonnull @.str.1, ptr noundef nonnull @__func__.H5D__chunk_mdio_init, i32 noundef 2459, i64 noundef %39, i64 noundef %40, ptr noundef nonnull @.str.146) #15
  br label %.loopexit

42:                                               ; preds = %35
  %43 = load ptr, ptr %1, align 8, !tbaa !79
  %44 = getelementptr inbounds nuw i8, ptr %36, i64 24
  %45 = call i32 @H5D__chunk_lookup(ptr noundef %43, ptr noundef nonnull %44, ptr noundef nonnull %3)
  %46 = icmp slt i32 %45, 0
  br i1 %46, label %47, label %51

47:                                               ; preds = %42
  %48 = load i64, ptr @H5E_DATASET_g, align 8, !tbaa !21
  %49 = load i64, ptr @H5E_CANTGET_g, align 8, !tbaa !21
  %50 = call i32 (ptr, ptr, i32, i64, i64, ptr, ...) @H5E_printf_stack(ptr noundef nonnull @.str.1, ptr noundef nonnull @__func__.H5D__chunk_mdio_init, i32 noundef 2463, i64 noundef %48, i64 noundef %49, ptr noundef nonnull @.str.3) #15
  br label %.loopexit

51:                                               ; preds = %42
  %52 = load i64, ptr %21, align 8, !tbaa !162
  store i64 %52, ptr %36, align 8, !tbaa !166
  %.not21 = icmp eq i64 %52, -1
  br i1 %.not21, label %64, label %53

53:                                               ; preds = %51
  %54 = load ptr, ptr %22, align 8, !tbaa !167
  %55 = load i64, ptr %23, align 8, !tbaa !168
  %56 = add i64 %55, 1
  store i64 %56, ptr %23, align 8, !tbaa !168
  %57 = getelementptr inbounds nuw ptr, ptr %54, i64 %55
  store ptr %36, ptr %57, align 8, !tbaa !169
  %58 = getelementptr inbounds nuw i8, ptr %36, i64 328
  %59 = load i8, ptr %58, align 8, !tbaa !122, !range !7, !noundef !8
  %60 = trunc nuw i8 %59 to i1
  br i1 %60, label %61, label %64

61:                                               ; preds = %53
  %62 = load i64, ptr %24, align 8, !tbaa !170
  %63 = add i64 %62, 1
  store i64 %63, ptr %24, align 8, !tbaa !170
  br label %64

64:                                               ; preds = %53, %61, %51
  %65 = load ptr, ptr %11, align 8, !tbaa !20
  %66 = getelementptr inbounds nuw i8, ptr %65, i64 3216
  %67 = load i8, ptr %66, align 8, !tbaa !105, !range !7, !noundef !8
  %68 = trunc nuw i8 %67 to i1
  br i1 %68, label %.loopexit, label %69

69:                                               ; preds = %64
  %70 = call ptr @H5SL_next(ptr noundef nonnull %.01923) #15
  %.not = icmp eq ptr %70, null
  br i1 %.not, label %.loopexit, label %25, !llvm.loop !171

.loopexit:                                        ; preds = %64, %69, %16, %38, %47, %2
  %.0 = phi i32 [ -1, %38 ], [ -1, %47 ], [ 0, %2 ], [ 0, %16 ], [ 0, %69 ], [ 0, %64 ]
  call void @llvm.lifetime.end.p0(i64 64, ptr nonnull %3) #15
  ret i32 %.0
}